target datalayout = "e-m:e-p270:32:32-p271:32:32-p272:64:64-i64:64-i128:128-f80:128-n8:16:32:64-S128"
target triple = "x86_64-pc-linux-gnu"

%struct.expert_field = type { i32, i32 }
%struct._packet_info = type { ptr, ptr, i32, i32, %struct.nstime_t, %struct.nstime_t, %struct.nstime_t, i8, ptr, ptr, ptr, ptr, %struct._address, %struct._address, %struct._address, %struct._address, %struct._address, %struct._address, i32, ptr, i8, [3 x i8], %struct.anon, i32, i32, i32, i32, ptr, i8, ptr, ptr, i16, i16, i32, i32, i16, i32, i32, ptr, ptr, ptr, i8, i8, i16, i16, i16, i32, i16, i16, ptr, ptr, ptr, ptr, ptr, i32, i32 }
%struct.nstime_t = type { i64, i32 }
%struct._address = type { i32, i32, ptr, ptr }
%struct.anon = type { i8, [3 x i8] }
%struct.tap_credential = type { i32, i32, i32, ptr, ptr, ptr }

@hf_smtp_username = internal global i32 0, align 4
@hf_smtp_password = internal global i32 0, align 4
@hf_smtp_username_password = internal global i32 0, align 4
@ei_smtp_base64_decode = internal global %struct.expert_field zeroinitializer, align 4
@.str.59 = private unnamed_addr constant [5 x i8] c"SMTP\00", align 1
@smtp_auth_parameter_decoding_enabled = internal global i8 0, align 1
@credentials_tap = internal global i32 0, align 4
@.str.135 = private unnamed_addr constant [9 x i8] c"User: %s\00", align 1
@.str.141 = private unnamed_addr constant [2 x i8] c" \00", align 1
@.str.142 = private unnamed_addr constant [10 x i8] c" Pass: %s\00", align 1

; Function Attrs: null_pointer_is_valid sspstrong uwtable
define internal void @decode_plain_auth(ptr noundef %0, ptr noundef %1, ptr noundef %2, i32 noundef %3, i32 noundef %4) #0 {
  %6 = alloca ptr, align 8
  %7 = alloca ptr, align 8
  %8 = alloca ptr, align 8
  %9 = alloca i32, align 4
  %10 = alloca i32, align 4
  %11 = alloca i32, align 4
  %12 = alloca i32, align 4
  %13 = alloca i32, align 4
  %14 = alloca i32, align 4
  %15 = alloca ptr, align 8
  %16 = alloca ptr, align 8
  %17 = alloca i64, align 8
  %18 = alloca ptr, align 8
  %19 = alloca ptr, align 8
  store ptr %0, ptr %6, align 8
  store ptr %1, ptr %7, align 8
  store ptr %2, ptr %8, align 8
  store i32 %3, ptr %9, align 4
  store i32 %4, ptr %10, align 4
  call void @llvm.lifetime.start.p0(i64 4, ptr %11) #8
  call void @llvm.lifetime.start.p0(i64 4, ptr %12) #8
  call void @llvm.lifetime.start.p0(i64 4, ptr %13) #8
  call void @llvm.lifetime.start.p0(i64 4, ptr %14) #8
  call void @llvm.lifetime.start.p0(i64 8, ptr %15) #8
  store ptr null, ptr %15, align 8
  call void @llvm.lifetime.start.p0(i64 8, ptr %16) #8
  call void @llvm.lifetime.start.p0(i64 8, ptr %17) #8
  store i64 0, ptr %17, align 8
  %20 = load ptr, ptr %7, align 8
  %21 = getelementptr inbounds nuw %struct._packet_info, ptr %20, i32 0, i32 51
  %22 = load ptr, ptr %21, align 8
  %23 = load ptr, ptr %6, align 8
  %24 = load i32, ptr %9, align 4
  %25 = load i32, ptr %10, align 4
  %26 = call ptr @tvb_get_string_enc(ptr noundef %22, ptr noundef %23, i32 noundef %24, i32 noundef %25, i32 noundef 0)
  store ptr %26, ptr %15, align 8
  %27 = load i8, ptr @smtp_auth_parameter_decoding_enabled, align 1, !range !6, !noundef !7
  %28 = trunc i8 %27 to i1
  br i1 %28, label %29, label %166

29:                                               ; preds = %5
  %30 = load ptr, ptr %15, align 8
  %31 = call i64 @strlen(ptr noundef %30) #10
  %32 = icmp ugt i64 %31, 1
  br i1 %32, label %33, label %39

33:                                               ; preds = %29
  %34 = load ptr, ptr %15, align 8
  %35 = call ptr @g_base64_decode_inplace(ptr noundef %34, ptr noundef %17)
  %36 = load ptr, ptr %15, align 8
  %37 = load i64, ptr %17, align 8
  %38 = getelementptr i8, ptr %36, i64 %37
  store i8 0, ptr %38, align 1
  br label %39

39:                                               ; preds = %33, %29
  %40 = load i64, ptr %17, align 8
  %41 = trunc i64 %40 to i32
  store i32 %41, ptr %11, align 4
  %42 = load i32, ptr %11, align 4
  %43 = icmp ne i32 %42, 0
  br i1 %43, label %44, label %165

44:                                               ; preds = %39
  call void @llvm.lifetime.start.p0(i64 8, ptr %18) #8
  %45 = load ptr, ptr %15, align 8
  %46 = call i64 @strlen(ptr noundef %45) #10
  %47 = trunc i64 %46 to i32
  store i32 %47, ptr %12, align 4
  %48 = load i32, ptr %11, align 4
  %49 = load i32, ptr %12, align 4
  %50 = add i32 %49, 1
  %51 = icmp sge i32 %48, %50
  br i1 %51, label %52, label %164

52:                                               ; preds = %44
  %53 = load ptr, ptr %15, align 8
  %54 = load i32, ptr %12, align 4
  %55 = sext i32 %54 to i64
  %56 = getelementptr i8, ptr %53, i64 %55
  %57 = getelementptr i8, ptr %56, i64 1
  %58 = call i64 @strlen(ptr noundef %57) #10
  %59 = trunc i64 %58 to i32
  store i32 %59, ptr %13, align 4
  %60 = load ptr, ptr %8, align 8
  %61 = load i32, ptr @hf_smtp_username, align 4
  %62 = load ptr, ptr %6, align 8
  %63 = load i32, ptr %9, align 4
  %64 = load i32, ptr %10, align 4
  %65 = load ptr, ptr %15, align 8
  %66 = load i32, ptr %12, align 4
  %67 = sext i32 %66 to i64
  %68 = getelementptr i8, ptr %65, i64 %67
  %69 = getelementptr i8, ptr %68, i64 1
  %70 = call ptr @proto_tree_add_string(ptr noundef %60, i32 noundef %61, ptr noundef %62, i32 noundef %63, i32 noundef %64, ptr noundef %69)
  %71 = load ptr, ptr %7, align 8
  %72 = getelementptr inbounds nuw %struct._packet_info, ptr %71, i32 0, i32 51
  %73 = load ptr, ptr %72, align 8
  %74 = load ptr, ptr %15, align 8
  %75 = load i32, ptr %12, align 4
  %76 = sext i32 %75 to i64
  %77 = getelementptr i8, ptr %74, i64 %76
  %78 = getelementptr i8, ptr %77, i64 1
  %79 = load i32, ptr %13, align 4
  %80 = sext i32 %79 to i64
  %81 = call ptr @format_text(ptr noundef %73, ptr noundef %78, i64 noundef %80)
  store ptr %81, ptr %18, align 8
  %82 = load ptr, ptr %7, align 8
  %83 = getelementptr inbounds nuw %struct._packet_info, ptr %82, i32 0, i32 1
  %84 = load ptr, ptr %83, align 8
  %85 = load ptr, ptr %18, align 8
  call void (ptr, i32, ptr, ...) @col_append_fstr(ptr noundef %84, i32 noundef 25, ptr noundef @.str.135, ptr noundef %85)
  %86 = load i32, ptr %11, align 4
  %87 = load i32, ptr %12, align 4
  %88 = add i32 %87, 1
  %89 = load i32, ptr %13, align 4
  %90 = add i32 %88, %89
  %91 = add i32 %90, 1
  %92 = icmp sge i32 %86, %91
  br i1 %92, label %93, label %163

93:                                               ; preds = %52
  %94 = load ptr, ptr %15, align 8
  %95 = load i32, ptr %12, align 4
  %96 = sext i32 %95 to i64
  %97 = getelementptr i8, ptr %94, i64 %96
  %98 = load i32, ptr %13, align 4
  %99 = sext i32 %98 to i64
  %100 = getelementptr i8, ptr %97, i64 %99
  %101 = getelementptr i8, ptr %100, i64 2
  %102 = call i64 @strlen(ptr noundef %101) #10
  %103 = trunc i64 %102 to i32
  store i32 %103, ptr %14, align 4
  %104 = load ptr, ptr %8, align 8
  %105 = load i32, ptr @hf_smtp_password, align 4
  %106 = load ptr, ptr %6, align 8
  %107 = load i32, ptr %9, align 4
  %108 = load i32, ptr %14, align 4
  %109 = load ptr, ptr %15, align 8
  %110 = load i32, ptr %12, align 4
  %111 = sext i32 %110 to i64
  %112 = getelementptr i8, ptr %109, i64 %111
  %113 = load i32, ptr %13, align 4
  %114 = sext i32 %113 to i64
  %115 = getelementptr i8, ptr %112, i64 %114
  %116 = getelementptr i8, ptr %115, i64 2
  %117 = call ptr @proto_tree_add_string(ptr noundef %104, i32 noundef %105, ptr noundef %106, i32 noundef %107, i32 noundef %108, ptr noundef %116)
  %118 = load ptr, ptr %7, align 8
  %119 = getelementptr inbounds nuw %struct._packet_info, ptr %118, i32 0, i32 1
  %120 = load ptr, ptr %119, align 8
  call void @col_append_str(ptr noundef %120, i32 noundef 25, ptr noundef @.str.141)
  %121 = load ptr, ptr %7, align 8
  %122 = getelementptr inbounds nuw %struct._packet_info, ptr %121, i32 0, i32 1
  %123 = load ptr, ptr %122, align 8
  %124 = load ptr, ptr %7, align 8
  %125 = getelementptr inbounds nuw %struct._packet_info, ptr %124, i32 0, i32 51
  %126 = load ptr, ptr %125, align 8
  %127 = load ptr, ptr %15, align 8
  %128 = load i32, ptr %12, align 4
  %129 = sext i32 %128 to i64
  %130 = getelementptr i8, ptr %127, i64 %129
  %131 = load i32, ptr %13, align 4
  %132 = sext i32 %131 to i64
  %133 = getelementptr i8, ptr %130, i64 %132
  %134 = getelementptr i8, ptr %133, i64 2
  %135 = load i32, ptr %14, align 4
  %136 = sext i32 %135 to i64
  %137 = call ptr @format_text(ptr noundef %126, ptr noundef %134, i64 noundef %136)
  call void (ptr, i32, ptr, ...) @col_append_fstr(ptr noundef %123, i32 noundef 25, ptr noundef @.str.142, ptr noundef %137)
  call void @llvm.lifetime.start.p0(i64 8, ptr %19) #8
  %138 = load ptr, ptr %7, align 8
  %139 = getelementptr inbounds nuw %struct._packet_info, ptr %138, i32 0, i32 51
  %140 = load ptr, ptr %139, align 8
  %141 = call noalias ptr @wmem_alloc0(ptr noundef %140, i64 noundef 40) #9
  store ptr %141, ptr %19, align 8
  %142 = load ptr, ptr %7, align 8
  %143 = getelementptr inbounds nuw %struct._packet_info, ptr %142, i32 0, i32 3
  %144 = load i32, ptr %143, align 4
  %145 = load ptr, ptr %19, align 8
  %146 = getelementptr inbounds nuw %struct.tap_credential, ptr %145, i32 0, i32 0
  store i32 %144, ptr %146, align 8
  %147 = load ptr, ptr %7, align 8
  %148 = getelementptr inbounds nuw %struct._packet_info, ptr %147, i32 0, i32 3
  %149 = load i32, ptr %148, align 4
  %150 = load ptr, ptr %19, align 8
  %151 = getelementptr inbounds nuw %struct.tap_credential, ptr %150, i32 0, i32 1
  store i32 %149, ptr %151, align 4
  %152 = load i32, ptr @hf_smtp_password, align 4
  %153 = load ptr, ptr %19, align 8
  %154 = getelementptr inbounds nuw %struct.tap_credential, ptr %153, i32 0, i32 2
  store i32 %152, ptr %154, align 8
  %155 = load ptr, ptr %18, align 8
  %156 = load ptr, ptr %19, align 8
  %157 = getelementptr inbounds nuw %struct.tap_credential, ptr %156, i32 0, i32 3
  store ptr %155, ptr %157, align 8
  %158 = load ptr, ptr %19, align 8
  %159 = getelementptr inbounds nuw %struct.tap_credential, ptr %158, i32 0, i32 4
  store ptr @.str.59, ptr %159, align 8
  %160 = load i32, ptr @credentials_tap, align 4
  %161 = load ptr, ptr %7, align 8
  %162 = load ptr, ptr %19, align 8
  call void @tap_queue_packet(i32 noundef %160, ptr noundef %161, ptr noundef %162)
  call void @llvm.lifetime.end.p0(i64 8, ptr %19) #8
  br label %163

163:                                              ; preds = %93, %52
  br label %164

164:                                              ; preds = %163, %44
  call void @llvm.lifetime.end.p0(i64 8, ptr %18) #8
  br label %165

165:                                              ; preds = %164, %39
  br label %186

166:                                              ; preds = %5
  %167 = load ptr, ptr %8, align 8
  %168 = load i32, ptr @hf_smtp_username_password, align 4
  %169 = load ptr, ptr %6, align 8
  %170 = load i32, ptr %9, align 4
  %171 = load i32, ptr %10, align 4
  %172 = call ptr @proto_tree_add_item(ptr noundef %167, i32 noundef %168, ptr noundef %169, i32 noundef %170, i32 noundef %171, i32 noundef 0)
  store ptr %172, ptr %16, align 8
  %173 = load ptr, ptr %7, align 8
  %174 = load ptr, ptr %16, align 8
  %175 = call ptr @expert_add_info(ptr noundef %173, ptr noundef %174, ptr noundef @ei_smtp_base64_decode)
  %176 = load ptr, ptr %7, align 8
  %177 = getelementptr inbounds nuw %struct._packet_info, ptr %176, i32 0, i32 1
  %178 = load ptr, ptr %177, align 8
  %179 = load ptr, ptr %7, align 8
  %180 = getelementptr inbounds nuw %struct._packet_info, ptr %179, i32 0, i32 51
  %181 = load ptr, ptr %180, align 8
  %182 = load ptr, ptr %15, align 8
  %183 = load i32, ptr %10, align 4
  %184 = sext i32 %183 to i64
  %185 = call ptr @format_text(ptr noundef %181, ptr noundef %182, i64 noundef %184)
  call void @col_append_str(ptr noundef %178, i32 noundef 25, ptr noundef %185)
  br label %186

186:                                              ; preds = %166, %165
  call void @llvm.lifetime.end.p0(i64 8, ptr %17) #8
  call void @llvm.lifetime.end.p0(i64 8, ptr %16) #8
  call void @llvm.lifetime.end.p0(i64 8, ptr %15) #8
  call void @llvm.lifetime.end.p0(i64 4, ptr %14) #8
  call void @llvm.lifetime.end.p0(i64 4, ptr %13) #8
  call void @llvm.lifetime.end.p0(i64 4, ptr %12) #8
  call void @llvm.lifetime.end.p0(i64 4, ptr %11) #8
  ret void
}