; Function Attrs: null_pointer_is_valid sspstrong uwtable
define internal fastcc void @decode_plain_auth(ptr noundef %0, ptr noundef %1, ptr noundef %2, i32 noundef %3, i32 noundef %4) unnamed_addr #0 {
  %6 = alloca i64, align 8
  call void @llvm.lifetime.start.p0(i64 8, ptr nonnull %6) #8
  store i64 0, ptr %6, align 8
  %7 = getelementptr inbounds nuw i8, ptr %1, i64 408
  %8 = load ptr, ptr %7, align 8
  %9 = tail call ptr @tvb_get_string_enc(ptr noundef %8, ptr noundef %0, i32 noundef %3, i32 noundef %4, i32 noundef 0)
  %10 = load i8, ptr @smtp_auth_parameter_decoding_enabled, align 1, !range !6, !noundef !7
  %11 = trunc nuw i8 %10 to i1
  br i1 %11, label %12, label %61

12:                                               ; preds = %5
  %13 = tail call i64 @strlen(ptr noundef %9) #10
  %14 = icmp ugt i64 %13, 1
  br i1 %14, label %15, label %.thread

15:                                               ; preds = %12
  %16 = call ptr @g_base64_decode_inplace(ptr noundef %9, ptr noundef nonnull %6)
  %17 = load i64, ptr %6, align 8
  %18 = getelementptr i8, ptr %9, i64 %17
  store i8 0, ptr %18, align 1
  %19 = trunc i64 %17 to i32
  %.not = icmp eq i32 %19, 0
  br i1 %.not, label %.thread, label %20

20:                                               ; preds = %15
  %21 = call i64 @strlen(ptr noundef %9) #10
  %22 = trunc i64 %21 to i32
  %23 = add i32 %22, 1
  %.not66 = icmp sgt i32 %23, %19
  br i1 %.not66, label %.thread, label %24

24:                                               ; preds = %20
  %sext = shl i64 %21, 32
  %25 = ashr exact i64 %sext, 32
  %26 = getelementptr i8, ptr %9, i64 %25
  %27 = getelementptr i8, ptr %26, i64 1
  %28 = call i64 @strlen(ptr noundef %27) #10
  %29 = trunc i64 %28 to i32
  %30 = load i32, ptr @hf_smtp_username, align 4
  %31 = call ptr @proto_tree_add_string(ptr noundef %2, i32 noundef %30, ptr noundef %0, i32 noundef %3, i32 noundef %4, ptr noundef %27)
  %32 = load ptr, ptr %7, align 8
  %sext67 = shl i64 %28, 32
  %33 = ashr exact i64 %sext67, 32
  %34 = call ptr @format_text(ptr noundef %32, ptr noundef %27, i64 noundef %33)
  %35 = getelementptr inbounds nuw i8, ptr %1, i64 8
  %36 = load ptr, ptr %35, align 8
  call void (ptr, i32, ptr, ...) @col_append_fstr(ptr noundef %36, i32 noundef 25, ptr noundef nonnull @.str.135, ptr noundef %34)
  %37 = add i32 %22, 2
  %38 = add i32 %37, %29
  %.not68 = icmp sgt i32 %38, %19
  br i1 %.not68, label %.thread, label %39

39:                                               ; preds = %24
  %40 = getelementptr i8, ptr %26, i64 %33
  %41 = getelementptr i8, ptr %40, i64 2
  %42 = call i64 @strlen(ptr noundef %41) #10
  %43 = trunc i64 %42 to i32
  %44 = load i32, ptr @hf_smtp_password, align 4
  %45 = call ptr @proto_tree_add_string(ptr noundef %2, i32 noundef %44, ptr noundef %0, i32 noundef %3, i32 noundef %43, ptr noundef %41)
  %46 = load ptr, ptr %35, align 8
  call void @col_append_str(ptr noundef %46, i32 noundef 25, ptr noundef nonnull @.str.141)
  %47 = load ptr, ptr %35, align 8
  %48 = load ptr, ptr %7, align 8
  %sext69 = shl i64 %42, 32
  %49 = ashr exact i64 %sext69, 32
  %50 = call ptr @format_text(ptr noundef %48, ptr noundef %41, i64 noundef %49)
  call void (ptr, i32, ptr, ...) @col_append_fstr(ptr noundef %47, i32 noundef 25, ptr noundef nonnull @.str.142, ptr noundef %50)
  %51 = load ptr, ptr %7, align 8
  %52 = call noalias dereferenceable_or_null(40) ptr @wmem_alloc0(ptr noundef %51, i64 noundef 40) #9
  %53 = getelementptr inbounds nuw i8, ptr %1, i64 20
  %54 = load i32, ptr %53, align 4
  store i32 %54, ptr %52, align 8
  %55 = getelementptr inbounds nuw i8, ptr %52, i64 4
  store i32 %54, ptr %55, align 4
  %56 = load i32, ptr @hf_smtp_password, align 4
  %57 = getelementptr inbounds nuw i8, ptr %52, i64 8
  store i32 %56, ptr %57, align 8
  %58 = getelementptr inbounds nuw i8, ptr %52, i64 16
  store ptr %34, ptr %58, align 8
  %59 = getelementptr inbounds nuw i8, ptr %52, i64 24
  store ptr @.str.59, ptr %59, align 8
  %60 = load i32, ptr @credentials_tap, align 4
  call void @tap_queue_packet(i32 noundef %60, ptr noundef %1, ptr noundef %52)
  br label %.thread

61:                                               ; preds = %5
  %62 = load i32, ptr @hf_smtp_username_password, align 4
  %63 = tail call ptr @proto_tree_add_item(ptr noundef %2, i32 noundef %62, ptr noundef %0, i32 noundef %3, i32 noundef %4, i32 noundef 0)
  %64 = tail call ptr @expert_add_info(ptr noundef %1, ptr noundef %63, ptr noundef nonnull @ei_smtp_base64_decode)
  %65 = getelementptr inbounds nuw i8, ptr %1, i64 8
  %66 = load ptr, ptr %65, align 8
  %67 = load ptr, ptr %7, align 8
  %68 = sext i32 %4 to i64
  %69 = tail call ptr @format_text(ptr noundef %67, ptr noundef %9, i64 noundef %68)
  tail call void @col_append_str(ptr noundef %66, i32 noundef 25, ptr noundef %69)
  br label %.thread

.thread:                                          ; preds = %12, %20, %39, %24, %15, %61
  call void @llvm.lifetime.end.p0(i64 8, ptr nonnull %6) #8
  ret void
}